target datalayout = "e-m:e-p270:32:32-p271:32:32-p272:64:64-i64:64-i128:128-f80:128-n8:16:32:64-S128"
target triple = "x86_64-unknown-linux-gnu"

@.str.4 = private unnamed_addr constant [10 x i8] c"critical,\00", align 1
@.str.5 = private unnamed_addr constant [5 x i8] c"DER:\00", align 1
@.str.6 = private unnamed_addr constant [6 x i8] c"ASN1:\00", align 1

; Function Attrs: nounwind uwtable
define internal i32 @v3_check_generic(ptr noundef %value) #0 {
entry:
  %retval = alloca i32, align 4
  %value.addr = alloca ptr, align 8
  %gen_type = alloca i32, align 4
  %p = alloca ptr, align 8
  store ptr %value, ptr %value.addr, align 8
  store i32 0, ptr %gen_type, align 4
  %0 = load ptr, ptr %value.addr, align 8
  %1 = load ptr, ptr %0, align 8
  store ptr %1, ptr %p, align 8
  %2 = load ptr, ptr %p, align 8
  %call = call i64 @strlen(ptr noundef %2) #6
  %cmp = icmp uge i64 %call, 4
  br i1 %cmp, label %land.lhs.true, label %if.else

land.lhs.true:                                    ; preds = %entry
  %3 = load ptr, ptr %p, align 8
  %call1 = call i32 @strncmp(ptr noundef %3, ptr noundef @.str.5, i64 noundef 4) #6
  %tobool = icmp ne i32 %call1, 0
  br i1 %tobool, label %if.else, label %if.then

if.then:                                          ; preds = %land.lhs.true
  %4 = load ptr, ptr %p, align 8
  %add.ptr = getelementptr inbounds i8, ptr %4, i64 4
  store ptr %add.ptr, ptr %p, align 8
  store i32 1, ptr %gen_type, align 4
  br label %if.end10

if.else:                                          ; preds = %land.lhs.true, %entry
  %5 = load ptr, ptr %p, align 8
  %call2 = call i64 @strlen(ptr noundef %5) #6
  %cmp3 = icmp uge i64 %call2, 5
  br i1 %cmp3, label %land.lhs.true4, label %if.else9

land.lhs.true4:                                   ; preds = %if.else
  %6 = load ptr, ptr %p, align 8
  %call5 = call i32 @strncmp(ptr noundef %6, ptr noundef @.str.6, i64 noundef 5) #6
  %tobool6 = icmp ne i32 %call5, 0
  br i1 %tobool6, label %if.else9, label %if.then7

if.then7:                                         ; preds = %land.lhs.true4
  %7 = load ptr, ptr %p, align 8
  %add.ptr8 = getelementptr inbounds i8, ptr %7, i64 5
  store ptr %add.ptr8, ptr %p, align 8
  store i32 2, ptr %gen_type, align 4
  br label %if.end

if.else9:                                         ; preds = %land.lhs.true4, %if.else
  store i32 0, ptr %retval, align 4
  br label %return

if.end:                                           ; preds = %if.then7
  br label %if.end10

if.end10:                                         ; preds = %if.end, %if.then
  br label %while.cond

while.cond:                                       ; preds = %while.body, %if.end10
  %call11 = call ptr @__ctype_b_loc() #7
  %8 = load ptr, ptr %call11, align 8
  %9 = load ptr, ptr %p, align 8
  %10 = load i8, ptr %9, align 1
  %conv = zext i8 %10 to i32
  %idxprom = sext i32 %conv to i64
  %arrayidx = getelementptr inbounds i16, ptr %8, i64 %idxprom
  %11 = load i16, ptr %arrayidx, align 2
  %conv12 = zext i16 %11 to i32
  %and = and i32 %conv12, 8192
  %tobool13 = icmp ne i32 %and, 0
  br i1 %tobool13, label %while.body, label %while.end

while.body:                                       ; preds = %while.cond
  %12 = load ptr, ptr %p, align 8
  %incdec.ptr = getelementptr inbounds i8, ptr %12, i32 1
  store ptr %incdec.ptr, ptr %p, align 8
  br label %while.cond, !llvm.loop !9

while.end:                                        ; preds = %while.cond
  %13 = load ptr, ptr %p, align 8
  %14 = load ptr, ptr %value.addr, align 8
  store ptr %13, ptr %14, align 8
  %15 = load i32, ptr %gen_type, align 4
  store i32 %15, ptr %retval, align 4
  br label %return

return:                                           ; preds = %while.end, %if.else9
  %16 = load i32, ptr %retval, align 4
  ret i32 %16
}

; Function Attrs: nounwind uwtable
define internal i32 @v3_check_critical(ptr noundef %value) #0 {
entry:
  %retval = alloca i32, align 4
  %value.addr = alloca ptr, align 8
  %p = alloca ptr, align 8
  store ptr %value, ptr %value.addr, align 8
  %0 = load ptr, ptr %value.addr, align 8
  %1 = load ptr, ptr %0, align 8
  store ptr %1, ptr %p, align 8
  %2 = load ptr, ptr %p, align 8
  %call = call i64 @strlen(ptr noundef %2) #6
  %cmp = icmp ult i64 %call, 9
  br i1 %cmp, label %if.then, label %lor.lhs.false

lor.lhs.false:                                    ; preds = %entry
  %3 = load ptr, ptr %p, align 8
  %call1 = call i32 @strncmp(ptr noundef %3, ptr noundef @.str.4, i64 noundef 9) #6
  %tobool = icmp ne i32 %call1, 0
  br i1 %tobool, label %if.then, label %if.end

if.then:                                          ; preds = %lor.lhs.false, %entry
  store i32 0, ptr %retval, align 4
  br label %return

if.end:                                           ; preds = %lor.lhs.false
  %4 = load ptr, ptr %p, align 8
  %add.ptr = getelementptr inbounds i8, ptr %4, i64 9
  store ptr %add.ptr, ptr %p, align 8
  br label %while.cond

while.cond:                                       ; preds = %while.body, %if.end
  %call2 = call ptr @__ctype_b_loc() #7
  %5 = load ptr, ptr %call2, align 8
  %6 = load ptr, ptr %p, align 8
  %7 = load i8, ptr %6, align 1
  %conv = zext i8 %7 to i32
  %idxprom = sext i32 %conv to i64
  %arrayidx = getelementptr inbounds i16, ptr %5, i64 %idxprom
  %8 = load i16, ptr %arrayidx, align 2
  %conv3 = zext i16 %8 to i32
  %and = and i32 %conv3, 8192
  %tobool4 = icmp ne i32 %and, 0
  br i1 %tobool4, label %while.body, label %while.end

while.body:                                       ; preds = %while.cond
  %9 = load ptr, ptr %p, align 8
  %incdec.ptr = getelementptr inbounds i8, ptr %9, i32 1
  store ptr %incdec.ptr, ptr %p, align 8
  br label %while.cond, !llvm.loop !7

while.end:                                        ; preds = %while.cond
  %10 = load ptr, ptr %p, align 8
  %11 = load ptr, ptr %value.addr, align 8
  store ptr %10, ptr %11, align 8
  store i32 1, ptr %retval, align 4
  br label %return

return:                                           ; preds = %while.end, %if.then
  %12 = load i32, ptr %retval, align 4
  ret i32 %12
}

; Function Attrs: nounwind uwtable
define hidden ptr @X509V3_EXT_nconf_nid(ptr noundef %conf, ptr noundef %ctx, i32 noundef %ext_nid, ptr noundef %value) #0 {
entry:
  %retval = alloca ptr, align 8
  %conf.addr = alloca ptr, align 8
  %ctx.addr = alloca ptr, align 8
  %ext_nid.addr = alloca i32, align 4
  %value.addr = alloca ptr, align 8
  %crit = alloca i32, align 4
  %ext_type = alloca i32, align 4
  store ptr %conf, ptr %conf.addr, align 8
  store ptr %ctx, ptr %ctx.addr, align 8
  store i32 %ext_nid, ptr %ext_nid.addr, align 4
  store ptr %value, ptr %value.addr, align 8
  %call = call i32 @v3_check_critical(ptr noundef %value.addr)
  store i32 %call, ptr %crit, align 4
  %call1 = call i32 @v3_check_generic(ptr noundef %value.addr)
  store i32 %call1, ptr %ext_type, align 4
  %tobool = icmp ne i32 %call1, 0
  br i1 %tobool, label %if.then, label %if.end

if.then:                                          ; preds = %entry
  %0 = load i32, ptr %ext_nid.addr, align 4
  %call2 = call ptr @OBJ_nid2sn(i32 noundef %0)
  %1 = load ptr, ptr %value.addr, align 8
  %2 = load i32, ptr %crit, align 4
  %3 = load i32, ptr %ext_type, align 4
  %4 = load ptr, ptr %ctx.addr, align 8
  %call3 = call ptr @v3_generic_extension(ptr noundef %call2, ptr noundef %1, i32 noundef %2, i32 noundef %3, ptr noundef %4)
  store ptr %call3, ptr %retval, align 8
  br label %return

if.end:                                           ; preds = %entry
  %5 = load ptr, ptr %conf.addr, align 8
  %6 = load ptr, ptr %ctx.addr, align 8
  %7 = load i32, ptr %ext_nid.addr, align 4
  %8 = load i32, ptr %crit, align 4
  %9 = load ptr, ptr %value.addr, align 8
  %call4 = call ptr @do_ext_nconf(ptr noundef %5, ptr noundef %6, i32 noundef %7, i32 noundef %8, ptr noundef %9)
  store ptr %call4, ptr %retval, align 8
  br label %return

return:                                           ; preds = %if.end, %if.then
  %10 = load ptr, ptr %retval, align 8
  ret ptr %10
}