; Function Attrs: nounwind uwtable
define hidden ptr @X509V3_EXT_nconf_nid(ptr noundef %conf, ptr noundef %ctx, i32 noundef %ext_nid, ptr noundef %value) local_unnamed_addr #0 {
entry:
  %call.i = tail call i64 @strlen(ptr noundef nonnull dereferenceable(1) %value) #8
  %cmp.i = icmp ult i64 %call.i, 9
  br i1 %cmp.i, label %v3_check_critical.exit, label %lor.lhs.false.i

lor.lhs.false.i:                                  ; preds = %entry
  %call1.i = tail call i32 @strncmp(ptr noundef nonnull dereferenceable(1) %value, ptr noundef nonnull dereferenceable(10) @.str.4, i64 noundef 9) #8
  %tobool.not.i = icmp eq i32 %call1.i, 0
  br i1 %tobool.not.i, label %if.end.i, label %v3_check_critical.exit

if.end.i:                                         ; preds = %lor.lhs.false.i
  %add.ptr.i = getelementptr inbounds nuw i8, ptr %value, i64 9
  %call2.i = tail call ptr @__ctype_b_loc() #9
  %0 = load ptr, ptr %call2.i, align 8
  br label %while.cond.i

while.cond.i:                                     ; preds = %while.cond.i, %if.end.i
  %p.0.i = phi ptr [ %add.ptr.i, %if.end.i ], [ %incdec.ptr.i, %while.cond.i ]
  %1 = load i8, ptr %p.0.i, align 1
  %idxprom.i = zext i8 %1 to i64
  %arrayidx.i = getelementptr inbounds nuw i16, ptr %0, i64 %idxprom.i
  %2 = load i16, ptr %arrayidx.i, align 2
  %3 = and i16 %2, 8192
  %tobool4.not.i = icmp eq i16 %3, 0
  %incdec.ptr.i = getelementptr inbounds nuw i8, ptr %p.0.i, i64 1
  br i1 %tobool4.not.i, label %v3_check_critical.exit, label %while.cond.i, !llvm.loop !7

v3_check_critical.exit:                           ; preds = %while.cond.i, %entry, %lor.lhs.false.i
  %value.addr.0 = phi ptr [ %value, %entry ], [ %value, %lor.lhs.false.i ], [ %p.0.i, %while.cond.i ]
  %retval.0.i = phi i32 [ 0, %entry ], [ 0, %lor.lhs.false.i ], [ 1, %while.cond.i ]
  %call.i4 = tail call i64 @strlen(ptr noundef nonnull dereferenceable(1) %value.addr.0) #8
  %cmp.i5 = icmp ugt i64 %call.i4, 3
  br i1 %cmp.i5, label %land.lhs.true.i, label %if.end

land.lhs.true.i:                                  ; preds = %v3_check_critical.exit
  %call1.i7 = tail call i32 @strncmp(ptr noundef nonnull dereferenceable(1) %value.addr.0, ptr noundef nonnull dereferenceable(5) @.str.5, i64 noundef 4) #8
  %tobool.not.i8 = icmp eq i32 %call1.i7, 0
  br i1 %tobool.not.i8, label %if.end10.i, label %if.else.i

if.else.i:                                        ; preds = %land.lhs.true.i
  %cmp3.not.i = icmp eq i64 %call.i4, 4
  br i1 %cmp3.not.i, label %if.end, label %land.lhs.true4.i

land.lhs.true4.i:                                 ; preds = %if.else.i
  %call5.i = tail call i32 @strncmp(ptr noundef nonnull dereferenceable(1) %value.addr.0, ptr noundef nonnull dereferenceable(6) @.str.6, i64 noundef 5) #8
  %tobool6.not.i = icmp eq i32 %call5.i, 0
  br i1 %tobool6.not.i, label %if.end10.i, label %if.end

if.end10.i:                                       ; preds = %land.lhs.true4.i, %land.lhs.true.i
  %.sink.i = phi i64 [ 4, %land.lhs.true.i ], [ 5, %land.lhs.true4.i ]
  %gen_type.0.i = phi i32 [ 1, %land.lhs.true.i ], [ 2, %land.lhs.true4.i ]
  %add.ptr8.i = getelementptr inbounds nuw i8, ptr %value.addr.0, i64 %.sink.i
  %call11.i = tail call ptr @__ctype_b_loc() #9
  %4 = load ptr, ptr %call11.i, align 8
  br label %while.cond.i9

while.cond.i9:                                    ; preds = %while.cond.i9, %if.end10.i
  %p.1.i = phi ptr [ %add.ptr8.i, %if.end10.i ], [ %incdec.ptr.i12, %while.cond.i9 ]
  %5 = load i8, ptr %p.1.i, align 1
  %idxprom.i10 = zext i8 %5 to i64
  %arrayidx.i11 = getelementptr inbounds nuw i16, ptr %4, i64 %idxprom.i10
  %6 = load i16, ptr %arrayidx.i11, align 2
  %7 = and i16 %6, 8192
  %tobool13.not.i = icmp eq i16 %7, 0
  %incdec.ptr.i12 = getelementptr inbounds nuw i8, ptr %p.1.i, i64 1
  br i1 %tobool13.not.i, label %if.then, label %while.cond.i9, !llvm.loop !9

if.then:                                          ; preds = %while.cond.i9
  %call2 = tail call ptr @OBJ_nid2sn(i32 noundef %ext_nid) #10
  %call3 = tail call fastcc ptr @v3_generic_extension(ptr noundef %call2, ptr noundef nonnull %p.1.i, i32 noundef %retval.0.i, i32 noundef %gen_type.0.i, ptr noundef %ctx)
  br label %return

if.end:                                           ; preds = %land.lhs.true4.i, %if.else.i, %v3_check_critical.exit
  %call4 = tail call fastcc ptr @do_ext_nconf(ptr noundef %conf, ptr noundef %ctx, i32 noundef %ext_nid, i32 noundef %retval.0.i, ptr noundef nonnull %value.addr.0)
  br label %return

return:                                           ; preds = %if.end, %if.then
  %retval.0 = phi ptr [ %call3, %if.then ], [ %call4, %if.end ]
  ret ptr %retval.0
}